; Function Attrs: mustprogress nofree norecurse nosync nounwind memory(readwrite, inaccessiblemem: none) uwtable
define noundef ptr @_ZNK6icu_757UVector7toArrayEPPv(ptr nocapture noundef nonnull readonly align 8 dereferenceable(40) %this, ptr noundef returned writeonly %result) local_unnamed_addr #9 align 2 {
entry:
  %count = getelementptr inbounds i8, ptr %this, i64 8
  %0 = load i32, ptr %count, align 8
  %cmp4 = icmp sgt i32 %0, 0
  br i1 %cmp4, label %for.body.lr.ph, label %for.end

for.body.lr.ph:                                   ; preds = %entry
  %elements = getelementptr inbounds i8, ptr %this, i64 16
  br label %for.body

for.body:                                         ; preds = %for.body.lr.ph, %for.body
  %indvars.iv = phi i64 [ 0, %for.body.lr.ph ], [ %indvars.iv.next, %for.body ]
  %a.05 = phi ptr [ %result, %for.body.lr.ph ], [ %incdec.ptr, %for.body ]
  %1 = load ptr, ptr %elements, align 8
  %arrayidx = getelementptr inbounds %union.UElement, ptr %1, i64 %indvars.iv
  %2 = load ptr, ptr %arrayidx, align 8
  %incdec.ptr = getelementptr inbounds i8, ptr %a.05, i64 8
  store ptr %2, ptr %a.05, align 8
  %indvars.iv.next = add nuw nsw i64 %indvars.iv, 1
  %3 = load i32, ptr %count, align 8
  %4 = sext i32 %3 to i64
  %cmp = icmp slt i64 %indvars.iv.next, %4
  br i1 %cmp, label %for.body, label %for.end, !llvm.loop !24

for.end:                                          ; preds = %for.body, %entry
  ret ptr %result
}